target datalayout = "e-m:e-p270:32:32-p271:32:32-p272:64:64-i64:64-i128:128-f80:128-n8:16:32:64-S128"
target triple = "x86_64-pc-linux-gnu"

%struct.DdManager = type { %struct.DdNode, ptr, ptr, ptr, ptr, ptr, ptr, ptr, i32, i32, double, double, double, i32, i32, i32, i32, i32, i32, ptr, ptr, %struct.DdSubtable, i32, i32, i32, i32, i32, i32, i32, double, i32, i32, i32, ptr, i64, double, i32, ptr, ptr, ptr, ptr, ptr, ptr, ptr, i32, ptr, ptr, ptr, ptr, ptr, ptr, i32, i32, i32, double, i32, i32, i32, i32, double, double, i32, i32, i32, i32, i32, i32, i32, i32, i32, ptr, ptr, i32, i32, i32, i32, i32, i32, ptr, ptr, ptr, ptr, ptr, ptr, ptr, ptr, i32, i64, i64, i64, i32, i64, i64, double, double, double, double, double, double, i32, ptr, ptr, i64 }
%struct.DdNode = type { i32, i32, ptr, %union.anon, i64 }
%union.anon = type { %struct.DdChildren }
%struct.DdChildren = type { ptr, ptr }
%struct.DdSubtable = type { ptr, i32, i32, i32, i32, i32, i32, i32, i32, i32, i32, i32 }

; Function Attrs: nounwind uwtable
define ptr @Cudd_addTriangle(ptr noundef %0, ptr noundef %1, ptr noundef %2, ptr noundef %3, i32 noundef %4) #0 {
  %6 = alloca ptr, align 8
  %7 = alloca ptr, align 8
  %8 = alloca ptr, align 8
  %9 = alloca ptr, align 8
  %10 = alloca ptr, align 8
  %11 = alloca i32, align 4
  %12 = alloca i32, align 4
  %13 = alloca i32, align 4
  %14 = alloca ptr, align 8
  %15 = alloca ptr, align 8
  %16 = alloca ptr, align 8
  %17 = alloca i32, align 4
  store ptr %0, ptr %7, align 8, !tbaa !3
  store ptr %1, ptr %8, align 8, !tbaa !8
  store ptr %2, ptr %9, align 8, !tbaa !8
  store ptr %3, ptr %10, align 8, !tbaa !10
  store i32 %4, ptr %11, align 4, !tbaa !12
  call void @llvm.lifetime.start.p0(i64 4, ptr %12) #5
  call void @llvm.lifetime.start.p0(i64 4, ptr %13) #5
  call void @llvm.lifetime.start.p0(i64 8, ptr %14) #5
  call void @llvm.lifetime.start.p0(i64 8, ptr %15) #5
  call void @llvm.lifetime.start.p0(i64 8, ptr %16) #5
  %18 = load ptr, ptr %7, align 8, !tbaa !3
  %19 = getelementptr inbounds nuw %struct.DdManager, ptr %18, i32 0, i32 15
  %20 = load i32, ptr %19, align 8, !tbaa !14
  store i32 %20, ptr %13, align 4, !tbaa !12
  %21 = load i32, ptr %13, align 4, !tbaa !12
  %22 = sext i32 %21 to i64
  %23 = mul i64 4, %22
  %24 = call noalias ptr @malloc(i64 noundef %23) #6
  store ptr %24, ptr %14, align 8, !tbaa !29
  %25 = load ptr, ptr %14, align 8, !tbaa !29
  %26 = icmp eq ptr %25, null
  br i1 %26, label %27, label %30

27:                                               ; preds = %5
  %28 = load ptr, ptr %7, align 8, !tbaa !3
  %29 = getelementptr inbounds nuw %struct.DdManager, ptr %28, i32 0, i32 86
  store i32 1, ptr %29, align 8, !tbaa !30
  store ptr null, ptr %6, align 8
  store i32 1, ptr %17, align 4
  br label %131

30:                                               ; preds = %5
  store i32 0, ptr %12, align 4, !tbaa !12
  br label %31

31:                                               ; preds = %40, %30
  %32 = load i32, ptr %12, align 4, !tbaa !12
  %33 = load i32, ptr %13, align 4, !tbaa !12
  %34 = icmp slt i32 %32, %33
  br i1 %34, label %35, label %43

35:                                               ; preds = %31
  %36 = load ptr, ptr %14, align 8, !tbaa !29
  %37 = load i32, ptr %12, align 4, !tbaa !12
  %38 = sext i32 %37 to i64
  %39 = getelementptr inbounds i32, ptr %36, i64 %38
  store i32 -1, ptr %39, align 4, !tbaa !12
  br label %40

40:                                               ; preds = %35
  %41 = load i32, ptr %12, align 4, !tbaa !12
  %42 = add nsw i32 %41, 1
  store i32 %42, ptr %12, align 4, !tbaa !12
  br label %31, !llvm.loop !49

43:                                               ; preds = %31
  store i32 0, ptr %12, align 4, !tbaa !12
  br label %44

44:                                               ; preds = %60, %43
  %45 = load i32, ptr %12, align 4, !tbaa !12
  %46 = load i32, ptr %11, align 4, !tbaa !12
  %47 = icmp slt i32 %45, %46
  br i1 %47, label %48, label %63

48:                                               ; preds = %44
  %49 = load i32, ptr %12, align 4, !tbaa !12
  %50 = load ptr, ptr %14, align 8, !tbaa !29
  %51 = load ptr, ptr %10, align 8, !tbaa !10
  %52 = load i32, ptr %12, align 4, !tbaa !12
  %53 = sext i32 %52 to i64
  %54 = getelementptr inbounds ptr, ptr %51, i64 %53
  %55 = load ptr, ptr %54, align 8, !tbaa !8
  %56 = getelementptr inbounds nuw %struct.DdNode, ptr %55, i32 0, i32 0
  %57 = load i32, ptr %56, align 8, !tbaa !33
  %58 = zext i32 %57 to i64
  %59 = getelementptr inbounds nuw i32, ptr %50, i64 %58
  store i32 %49, ptr %59, align 4, !tbaa !12
  br label %60

60:                                               ; preds = %48
  %61 = load i32, ptr %12, align 4, !tbaa !12
  %62 = add nsw i32 %61, 1
  store i32 %62, ptr %12, align 4, !tbaa !12
  br label %44, !llvm.loop !50

63:                                               ; preds = %44
  %64 = load ptr, ptr %7, align 8, !tbaa !3
  %65 = load ptr, ptr %10, align 8, !tbaa !10
  %66 = load i32, ptr %11, align 4, !tbaa !12
  %67 = call ptr @Cudd_addComputeCube(ptr noundef %64, ptr noundef %65, ptr noundef null, i32 noundef %66)
  store ptr %67, ptr %16, align 8, !tbaa !8
  %68 = load ptr, ptr %16, align 8, !tbaa !8
  %69 = icmp eq ptr %68, null
  br i1 %69, label %70, label %77

70:                                               ; preds = %63
  %71 = load ptr, ptr %14, align 8, !tbaa !29
  %72 = icmp ne ptr %71, null
  br i1 %72, label %73, label %75

73:                                               ; preds = %70
  %74 = load ptr, ptr %14, align 8, !tbaa !29
  call void @free(ptr noundef %74) #5
  store ptr null, ptr %14, align 8, !tbaa !29
  br label %76

75:                                               ; preds = %70
  br label %76

76:                                               ; preds = %75, %73
  store ptr null, ptr %6, align 8
  store i32 1, ptr %17, align 4
  br label %131

77:                                               ; preds = %63
  %78 = load ptr, ptr %16, align 8, !tbaa !8
  %79 = ptrtoint ptr %78 to i64
  %80 = and i64 %79, -2
  %81 = inttoptr i64 %80 to ptr
  %82 = getelementptr inbounds nuw %struct.DdNode, ptr %81, i32 0, i32 1
  %83 = load i32, ptr %82, align 4, !tbaa !44
  %84 = add i32 %83, 1
  store i32 %84, ptr %82, align 4, !tbaa !44
  br label %85

85:                                               ; preds = %94, %77
  %86 = load ptr, ptr %7, align 8, !tbaa !3
  %87 = getelementptr inbounds nuw %struct.DdManager, ptr %86, i32 0, i32 55
  store i32 0, ptr %87, align 8, !tbaa !35
  %88 = load ptr, ptr %7, align 8, !tbaa !3
  %89 = load ptr, ptr %8, align 8, !tbaa !8
  %90 = load ptr, ptr %9, align 8, !tbaa !8
  %91 = load ptr, ptr %14, align 8, !tbaa !29
  %92 = load ptr, ptr %16, align 8, !tbaa !8
  %93 = call ptr @addTriangleRecur(ptr noundef %88, ptr noundef %89, ptr noundef %90, ptr noundef %91, ptr noundef %92)
  store ptr %93, ptr %15, align 8, !tbaa !8
  br label %94

94:                                               ; preds = %85
  %95 = load ptr, ptr %7, align 8, !tbaa !3
  %96 = getelementptr inbounds nuw %struct.DdManager, ptr %95, i32 0, i32 55
  %97 = load i32, ptr %96, align 8, !tbaa !35
  %98 = icmp eq i32 %97, 1
  br i1 %98, label %85, label %99, !llvm.loop !51

99:                                               ; preds = %94
  %100 = load ptr, ptr %15, align 8, !tbaa !8
  %101 = icmp ne ptr %100, null
  br i1 %101, label %102, label %110

102:                                              ; preds = %99
  %103 = load ptr, ptr %15, align 8, !tbaa !8
  %104 = ptrtoint ptr %103 to i64
  %105 = and i64 %104, -2
  %106 = inttoptr i64 %105 to ptr
  %107 = getelementptr inbounds nuw %struct.DdNode, ptr %106, i32 0, i32 1
  %108 = load i32, ptr %107, align 4, !tbaa !44
  %109 = add i32 %108, 1
  store i32 %109, ptr %107, align 4, !tbaa !44
  br label %110

110:                                              ; preds = %102, %99
  %111 = load ptr, ptr %7, align 8, !tbaa !3
  %112 = load ptr, ptr %16, align 8, !tbaa !8
  call void @Cudd_RecursiveDeref(ptr noundef %111, ptr noundef %112)
  %113 = load ptr, ptr %15, align 8, !tbaa !8
  %114 = icmp ne ptr %113, null
  br i1 %114, label %115, label %123

115:                                              ; preds = %110
  %116 = load ptr, ptr %15, align 8, !tbaa !8
  %117 = ptrtoint ptr %116 to i64
  %118 = and i64 %117, -2
  %119 = inttoptr i64 %118 to ptr
  %120 = getelementptr inbounds nuw %struct.DdNode, ptr %119, i32 0, i32 1
  %121 = load i32, ptr %120, align 4, !tbaa !44
  %122 = add i32 %121, -1
  store i32 %122, ptr %120, align 4, !tbaa !44
  br label %123

123:                                              ; preds = %115, %110
  %124 = load ptr, ptr %14, align 8, !tbaa !29
  %125 = icmp ne ptr %124, null
  br i1 %125, label %126, label %128

126:                                              ; preds = %123
  %127 = load ptr, ptr %14, align 8, !tbaa !29
  call void @free(ptr noundef %127) #5
  store ptr null, ptr %14, align 8, !tbaa !29
  br label %129

128:                                              ; preds = %123
  br label %129

129:                                              ; preds = %128, %126
  %130 = load ptr, ptr %15, align 8, !tbaa !8
  store ptr %130, ptr %6, align 8
  store i32 1, ptr %17, align 4
  br label %131

131:                                              ; preds = %129, %76, %27
  call void @llvm.lifetime.end.p0(i64 8, ptr %16) #5
  call void @llvm.lifetime.end.p0(i64 8, ptr %15) #5
  call void @llvm.lifetime.end.p0(i64 8, ptr %14) #5
  call void @llvm.lifetime.end.p0(i64 4, ptr %13) #5
  call void @llvm.lifetime.end.p0(i64 4, ptr %12) #5
  %132 = load ptr, ptr %6, align 8
  ret ptr %132
}