; Function Attrs: nounwind uwtable
define ptr @Cudd_addTriangle(ptr noundef %0, ptr noundef %1, ptr noundef %2, ptr noundef %3, i32 noundef %4) local_unnamed_addr #0 {
  %6 = getelementptr inbounds nuw i8, ptr %0, i64 136
  %7 = load i32, ptr %6, align 8, !tbaa !3
  %8 = sext i32 %7 to i64
  %9 = shl nsw i64 %8, 2
  %10 = tail call noalias ptr @malloc(i64 noundef %9) #6
  %11 = icmp eq ptr %10, null
  br i1 %11, label %15, label %.preheader45

.preheader45:                                     ; preds = %5
  %12 = icmp sgt i32 %7, 0
  br i1 %12, label %.lr.ph.preheader, label %.preheader

.lr.ph.preheader:                                 ; preds = %.preheader45
  %13 = zext nneg i32 %7 to i64
  %14 = shl nuw nsw i64 %13, 2
  tail call void @llvm.memset.p0.i64(ptr nonnull align 4 %10, i8 -1, i64 %14, i1 false), !tbaa !24
  br label %.preheader

15:                                               ; preds = %5
  %16 = getelementptr inbounds nuw i8, ptr %0, i64 624
  store i32 1, ptr %16, align 8, !tbaa !25
  br label %50

.preheader:                                       ; preds = %.lr.ph.preheader, %.preheader45
  %17 = icmp sgt i32 %4, 0
  br i1 %17, label %.lr.ph48.preheader, label %._crit_edge

.lr.ph48.preheader:                               ; preds = %.preheader
  %wide.trip.count = zext nneg i32 %4 to i64
  br label %.lr.ph48

.lr.ph48:                                         ; preds = %.lr.ph48.preheader, %.lr.ph48
  %indvars.iv = phi i64 [ 0, %.lr.ph48.preheader ], [ %indvars.iv.next, %.lr.ph48 ]
  %18 = getelementptr inbounds nuw ptr, ptr %3, i64 %indvars.iv
  %19 = load ptr, ptr %18, align 8, !tbaa !26
  %20 = load i32, ptr %19, align 8, !tbaa !27
  %21 = zext i32 %20 to i64
  %22 = getelementptr inbounds nuw i32, ptr %10, i64 %21
  %23 = trunc nuw nsw i64 %indvars.iv to i32
  store i32 %23, ptr %22, align 4, !tbaa !24
  %indvars.iv.next = add nuw nsw i64 %indvars.iv, 1
  %exitcond.not = icmp eq i64 %indvars.iv.next, %wide.trip.count
  br i1 %exitcond.not, label %._crit_edge, label %.lr.ph48, !llvm.loop !42

._crit_edge:                                      ; preds = %.lr.ph48, %.preheader
  %24 = tail call ptr @Cudd_addComputeCube(ptr noundef %0, ptr noundef %3, ptr noundef null, i32 noundef %4) #7
  %25 = icmp eq ptr %24, null
  br i1 %25, label %26, label %27

26:                                               ; preds = %._crit_edge
  tail call void @free(ptr noundef nonnull %10) #7
  br label %50

27:                                               ; preds = %._crit_edge
  %28 = ptrtoint ptr %24 to i64
  %29 = and i64 %28, -2
  %30 = inttoptr i64 %29 to ptr
  %31 = getelementptr inbounds nuw i8, ptr %30, i64 4
  %32 = load i32, ptr %31, align 4, !tbaa !37
  %33 = add i32 %32, 1
  store i32 %33, ptr %31, align 4, !tbaa !37
  %34 = getelementptr inbounds nuw i8, ptr %0, i64 448
  br label %35

35:                                               ; preds = %35, %27
  store i32 0, ptr %34, align 8, !tbaa !30
  %36 = tail call fastcc ptr @addTriangleRecur(ptr noundef %0, ptr noundef %1, ptr noundef %2, ptr noundef %10, ptr noundef %24)
  %37 = load i32, ptr %34, align 8, !tbaa !30
  %38 = icmp eq i32 %37, 1
  br i1 %38, label %35, label %39, !llvm.loop !43

39:                                               ; preds = %35
  %.not = icmp eq ptr %36, null
  br i1 %.not, label %.critedge, label %40

40:                                               ; preds = %39
  %41 = ptrtoint ptr %36 to i64
  %42 = and i64 %41, -2
  %43 = inttoptr i64 %42 to ptr
  %44 = getelementptr inbounds nuw i8, ptr %43, i64 4
  %45 = load i32, ptr %44, align 4, !tbaa !37
  %46 = add i32 %45, 1
  store i32 %46, ptr %44, align 4, !tbaa !37
  tail call void @Cudd_RecursiveDeref(ptr noundef nonnull %0, ptr noundef nonnull %24) #7
  %47 = load i32, ptr %44, align 4, !tbaa !37
  %48 = add i32 %47, -1
  store i32 %48, ptr %44, align 4, !tbaa !37
  br label %49

.critedge:                                        ; preds = %39
  tail call void @Cudd_RecursiveDeref(ptr noundef nonnull %0, ptr noundef nonnull %24) #7
  br label %49

49:                                               ; preds = %40, %.critedge
  tail call void @free(ptr noundef nonnull %10) #7
  br label %50

50:                                               ; preds = %49, %26, %15
  %.0 = phi ptr [ null, %15 ], [ null, %26 ], [ %36, %49 ]
  ret ptr %.0
}